(lp0
(lp1
Vgrey
p2
aI140
aa(lp3
Vrand
p4
aI135
aa(lp5
Vyaman
p6
aI95
aa(lp7
Vaddawdw
p8
aI95
aa(lp9
Vrick
p10
aI45
aa(lp11
Vbob
p12
aI0
aa(lp13
Vadam
p14
aI0
aa(lp15
Valmas
p16
aI0
aa(lp17
Vgill
p18
aI0
aa(lp19
Vdwddwd
p20
aI0
aa.